target datalayout = "e-m:e-p270:32:32-p271:32:32-p272:64:64-i64:64-i128:128-f80:128-n8:16:32:64-S128"
target triple = "x86_64-pc-linux-gnu"

%struct.dsa_area_control = type { %struct.dsa_segment_header, i32, [1024 x i32], [16 x i64], [38 x %struct.dsa_area_pool], i64, i64, i64, i64, i64, i32, i8, i64, i32, %struct.LWLock }
%struct.dsa_segment_header = type { i32, i64, i64, i64, i64, i64, i8 }
%struct.dsa_area_pool = type { %struct.LWLock, [4 x i64] }
%struct.LWLock = type { i16, %struct.pg_atomic_uint32, %struct.proclist_head }
%struct.pg_atomic_uint32 = type { i32 }
%struct.proclist_head = type { i32, i32 }
%struct.dsa_area = type { ptr, ptr, [1024 x %struct.dsa_segment_map], i64, i64 }
%struct.dsa_segment_map = type { ptr, ptr, ptr, ptr, ptr }
%struct.dsa_area_span = type { i64, i64, i64, i64, i64, i16, i16, i16, i16, i16, i16 }

; Function Attrs: nounwind uwtable
define internal void @check_for_freed_segments_locked(ptr noundef %0) #0 {
  %2 = alloca ptr, align 8
  %3 = alloca i64, align 8
  %4 = alloca i32, align 4
  store ptr %0, ptr %2, align 8
  call void @llvm.lifetime.start.p0(i64 8, ptr %3) #8
  call void @llvm.lifetime.start.p0(i64 4, ptr %4) #8
  %5 = load ptr, ptr %2, align 8
  %6 = getelementptr inbounds nuw %struct.dsa_area, ptr %5, i32 0, i32 0
  %7 = load ptr, ptr %6, align 8
  %8 = getelementptr inbounds nuw %struct.dsa_area_control, ptr %7, i32 0, i32 12
  %9 = load i64, ptr %8, align 8
  store i64 %9, ptr %3, align 8
  %10 = load ptr, ptr %2, align 8
  %11 = getelementptr inbounds nuw %struct.dsa_area, ptr %10, i32 0, i32 4
  %12 = load i64, ptr %11, align 8
  %13 = load i64, ptr %3, align 8
  %14 = icmp ne i64 %12, %13
  %15 = zext i1 %14 to i32
  %16 = icmp ne i32 %15, 0
  %17 = zext i1 %16 to i32
  %18 = sext i32 %17 to i64
  %19 = call i64 @llvm.expect.i64(i64 %18, i64 0)
  %20 = icmp ne i64 %19, 0
  br i1 %20, label %21, label %83

21:                                               ; preds = %1
  store i32 0, ptr %4, align 4
  br label %22

22:                                               ; preds = %76, %21
  %23 = load i32, ptr %4, align 4
  %24 = sext i32 %23 to i64
  %25 = load ptr, ptr %2, align 8
  %26 = getelementptr inbounds nuw %struct.dsa_area, ptr %25, i32 0, i32 3
  %27 = load i64, ptr %26, align 8
  %28 = icmp ule i64 %24, %27
  br i1 %28, label %29, label %79

29:                                               ; preds = %22
  %30 = load ptr, ptr %2, align 8
  %31 = getelementptr inbounds nuw %struct.dsa_area, ptr %30, i32 0, i32 2
  %32 = load i32, ptr %4, align 4
  %33 = sext i32 %32 to i64
  %34 = getelementptr inbounds [1024 x %struct.dsa_segment_map], ptr %31, i64 0, i64 %33
  %35 = getelementptr inbounds nuw %struct.dsa_segment_map, ptr %34, i32 0, i32 2
  %36 = load ptr, ptr %35, align 8
  %37 = icmp ne ptr %36, null
  br i1 %37, label %38, label %75

38:                                               ; preds = %29
  %39 = load ptr, ptr %2, align 8
  %40 = getelementptr inbounds nuw %struct.dsa_area, ptr %39, i32 0, i32 2
  %41 = load i32, ptr %4, align 4
  %42 = sext i32 %41 to i64
  %43 = getelementptr inbounds [1024 x %struct.dsa_segment_map], ptr %40, i64 0, i64 %42
  %44 = getelementptr inbounds nuw %struct.dsa_segment_map, ptr %43, i32 0, i32 2
  %45 = load ptr, ptr %44, align 8
  %46 = getelementptr inbounds nuw %struct.dsa_segment_header, ptr %45, i32 0, i32 6
  %47 = load i8, ptr %46, align 8, !range !14, !noundef !15
  %48 = trunc i8 %47 to i1
  br i1 %48, label %49, label %75

49:                                               ; preds = %38
  %50 = load ptr, ptr %2, align 8
  %51 = getelementptr inbounds nuw %struct.dsa_area, ptr %50, i32 0, i32 2
  %52 = load i32, ptr %4, align 4
  %53 = sext i32 %52 to i64
  %54 = getelementptr inbounds [1024 x %struct.dsa_segment_map], ptr %51, i64 0, i64 %53
  %55 = getelementptr inbounds nuw %struct.dsa_segment_map, ptr %54, i32 0, i32 0
  %56 = load ptr, ptr %55, align 8
  call void @dsm_detach(ptr noundef %56)
  %57 = load ptr, ptr %2, align 8
  %58 = getelementptr inbounds nuw %struct.dsa_area, ptr %57, i32 0, i32 2
  %59 = load i32, ptr %4, align 4
  %60 = sext i32 %59 to i64
  %61 = getelementptr inbounds [1024 x %struct.dsa_segment_map], ptr %58, i64 0, i64 %60
  %62 = getelementptr inbounds nuw %struct.dsa_segment_map, ptr %61, i32 0, i32 0
  store ptr null, ptr %62, align 8
  %63 = load ptr, ptr %2, align 8
  %64 = getelementptr inbounds nuw %struct.dsa_area, ptr %63, i32 0, i32 2
  %65 = load i32, ptr %4, align 4
  %66 = sext i32 %65 to i64
  %67 = getelementptr inbounds [1024 x %struct.dsa_segment_map], ptr %64, i64 0, i64 %66
  %68 = getelementptr inbounds nuw %struct.dsa_segment_map, ptr %67, i32 0, i32 2
  store ptr null, ptr %68, align 8
  %69 = load ptr, ptr %2, align 8
  %70 = getelementptr inbounds nuw %struct.dsa_area, ptr %69, i32 0, i32 2
  %71 = load i32, ptr %4, align 4
  %72 = sext i32 %71 to i64
  %73 = getelementptr inbounds [1024 x %struct.dsa_segment_map], ptr %70, i64 0, i64 %72
  %74 = getelementptr inbounds nuw %struct.dsa_segment_map, ptr %73, i32 0, i32 1
  store ptr null, ptr %74, align 8
  br label %75

75:                                               ; preds = %49, %38, %29
  br label %76

76:                                               ; preds = %75
  %77 = load i32, ptr %4, align 4
  %78 = add i32 %77, 1
  store i32 %78, ptr %4, align 4
  br label %22, !llvm.loop !24

79:                                               ; preds = %22
  %80 = load i64, ptr %3, align 8
  %81 = load ptr, ptr %2, align 8
  %82 = getelementptr inbounds nuw %struct.dsa_area, ptr %81, i32 0, i32 4
  store i64 %80, ptr %82, align 8
  br label %83

83:                                               ; preds = %79, %1
  call void @llvm.lifetime.end.p0(i64 4, ptr %4) #8
  call void @llvm.lifetime.end.p0(i64 8, ptr %3) #8
  ret void
}

; Function Attrs: nounwind uwtable
define internal void @check_for_freed_segments(ptr noundef %0) #0 {
  %2 = alloca ptr, align 8
  %3 = alloca i64, align 8
  store ptr %0, ptr %2, align 8
  call void @llvm.lifetime.start.p0(i64 8, ptr %3) #8
  call void asm sideeffect "", "~{memory},~{dirflag},~{fpsr},~{flags}"() #8, !srcloc !13
  %4 = load ptr, ptr %2, align 8
  %5 = getelementptr inbounds nuw %struct.dsa_area, ptr %4, i32 0, i32 0
  %6 = load ptr, ptr %5, align 8
  %7 = getelementptr inbounds nuw %struct.dsa_area_control, ptr %6, i32 0, i32 12
  %8 = load i64, ptr %7, align 8
  store i64 %8, ptr %3, align 8
  %9 = load ptr, ptr %2, align 8
  %10 = getelementptr inbounds nuw %struct.dsa_area, ptr %9, i32 0, i32 4
  %11 = load i64, ptr %10, align 8
  %12 = load i64, ptr %3, align 8
  %13 = icmp ne i64 %11, %12
  %14 = zext i1 %13 to i32
  %15 = icmp ne i32 %14, 0
  %16 = zext i1 %15 to i32
  %17 = sext i32 %16 to i64
  %18 = call i64 @llvm.expect.i64(i64 %17, i64 0)
  %19 = icmp ne i64 %18, 0
  br i1 %19, label %20, label %31

20:                                               ; preds = %1
  %21 = load ptr, ptr %2, align 8
  %22 = getelementptr inbounds nuw %struct.dsa_area, ptr %21, i32 0, i32 0
  %23 = load ptr, ptr %22, align 8
  %24 = getelementptr inbounds nuw %struct.dsa_area_control, ptr %23, i32 0, i32 14
  %25 = call zeroext i1 @LWLockAcquire(ptr noundef %24, i32 noundef 0)
  %26 = load ptr, ptr %2, align 8
  call void @check_for_freed_segments_locked(ptr noundef %26)
  %27 = load ptr, ptr %2, align 8
  %28 = getelementptr inbounds nuw %struct.dsa_area, ptr %27, i32 0, i32 0
  %29 = load ptr, ptr %28, align 8
  %30 = getelementptr inbounds nuw %struct.dsa_area_control, ptr %29, i32 0, i32 14
  call void @LWLockRelease(ptr noundef %30)
  br label %31

31:                                               ; preds = %20, %1
  call void @llvm.lifetime.end.p0(i64 8, ptr %3) #8
  ret void
}

; Function Attrs: nounwind uwtable
define dso_local ptr @dsa_get_address(ptr noundef %0, i64 noundef %1) #0 {
  %3 = alloca ptr, align 8
  %4 = alloca ptr, align 8
  %5 = alloca i64, align 8
  %6 = alloca i64, align 8
  %7 = alloca i64, align 8
  %8 = alloca i32, align 4
  store ptr %0, ptr %4, align 8
  store i64 %1, ptr %5, align 8
  call void @llvm.lifetime.start.p0(i64 8, ptr %6) #8
  call void @llvm.lifetime.start.p0(i64 8, ptr %7) #8
  %9 = load i64, ptr %5, align 8
  %10 = icmp ne i64 %9, 0
  br i1 %10, label %12, label %11

11:                                               ; preds = %2
  store ptr null, ptr %3, align 8
  store i32 1, ptr %8, align 4
  br label %44

12:                                               ; preds = %2
  %13 = load ptr, ptr %4, align 8
  call void @check_for_freed_segments(ptr noundef %13)
  %14 = load i64, ptr %5, align 8
  %15 = lshr i64 %14, 40
  store i64 %15, ptr %6, align 8
  %16 = load i64, ptr %5, align 8
  %17 = and i64 %16, 1099511627775
  store i64 %17, ptr %7, align 8
  %18 = load ptr, ptr %4, align 8
  %19 = getelementptr inbounds nuw %struct.dsa_area, ptr %18, i32 0, i32 2
  %20 = load i64, ptr %6, align 8
  %21 = getelementptr inbounds nuw [1024 x %struct.dsa_segment_map], ptr %19, i64 0, i64 %20
  %22 = getelementptr inbounds nuw %struct.dsa_segment_map, ptr %21, i32 0, i32 1
  %23 = load ptr, ptr %22, align 8
  %24 = icmp eq ptr %23, null
  %25 = zext i1 %24 to i32
  %26 = icmp ne i32 %25, 0
  %27 = zext i1 %26 to i32
  %28 = sext i32 %27 to i64
  %29 = call i64 @llvm.expect.i64(i64 %28, i64 0)
  %30 = icmp ne i64 %29, 0
  br i1 %30, label %31, label %35

31:                                               ; preds = %12
  %32 = load ptr, ptr %4, align 8
  %33 = load i64, ptr %6, align 8
  %34 = call ptr @get_segment_by_index(ptr noundef %32, i64 noundef %33)
  br label %35

35:                                               ; preds = %31, %12
  %36 = load ptr, ptr %4, align 8
  %37 = getelementptr inbounds nuw %struct.dsa_area, ptr %36, i32 0, i32 2
  %38 = load i64, ptr %6, align 8
  %39 = getelementptr inbounds nuw [1024 x %struct.dsa_segment_map], ptr %37, i64 0, i64 %38
  %40 = getelementptr inbounds nuw %struct.dsa_segment_map, ptr %39, i32 0, i32 1
  %41 = load ptr, ptr %40, align 8
  %42 = load i64, ptr %7, align 8
  %43 = getelementptr inbounds nuw i8, ptr %41, i64 %42
  store ptr %43, ptr %3, align 8
  store i32 1, ptr %8, align 4
  br label %44

44:                                               ; preds = %35, %11
  call void @llvm.lifetime.end.p0(i64 8, ptr %7) #8
  call void @llvm.lifetime.end.p0(i64 8, ptr %6) #8
  %45 = load ptr, ptr %3, align 8
  ret ptr %45
}

; Function Attrs: nounwind uwtable
define dso_local void @dsa_trim(ptr noundef %0) #0 {
  %2 = alloca ptr, align 8
  %3 = alloca i32, align 4
  %4 = alloca ptr, align 8
  %5 = alloca i64, align 8
  %6 = alloca i32, align 4
  %7 = alloca ptr, align 8
  %8 = alloca i64, align 8
  store ptr %0, ptr %2, align 8
  call void @llvm.lifetime.start.p0(i64 4, ptr %3) #8
  store i32 37, ptr %3, align 4
  br label %9

9:                                                ; preds = %73, %1
  %10 = load i32, ptr %3, align 4
  %11 = icmp sge i32 %10, 0
  br i1 %11, label %12, label %76

12:                                               ; preds = %9
  call void @llvm.lifetime.start.p0(i64 8, ptr %4) #8
  %13 = load ptr, ptr %2, align 8
  %14 = getelementptr inbounds nuw %struct.dsa_area, ptr %13, i32 0, i32 0
  %15 = load ptr, ptr %14, align 8
  %16 = getelementptr inbounds nuw %struct.dsa_area_control, ptr %15, i32 0, i32 4
  %17 = load i32, ptr %3, align 4
  %18 = sext i32 %17 to i64
  %19 = getelementptr inbounds [38 x %struct.dsa_area_pool], ptr %16, i64 0, i64 %18
  store ptr %19, ptr %4, align 8
  call void @llvm.lifetime.start.p0(i64 8, ptr %5) #8
  %20 = load i32, ptr %3, align 4
  %21 = icmp eq i32 %20, 1
  br i1 %21, label %22, label %23

22:                                               ; preds = %12
  store i32 4, ptr %6, align 4
  br label %70

23:                                               ; preds = %12
  %24 = load ptr, ptr %2, align 8
  %25 = getelementptr inbounds nuw %struct.dsa_area, ptr %24, i32 0, i32 0
  %26 = load ptr, ptr %25, align 8
  %27 = getelementptr inbounds nuw %struct.dsa_area_control, ptr %26, i32 0, i32 4
  %28 = load i32, ptr %3, align 4
  %29 = sext i32 %28 to i64
  %30 = getelementptr inbounds [38 x %struct.dsa_area_pool], ptr %27, i64 0, i64 %29
  %31 = getelementptr inbounds nuw %struct.dsa_area_pool, ptr %30, i32 0, i32 0
  %32 = call zeroext i1 @LWLockAcquire(ptr noundef %31, i32 noundef 0)
  %33 = load ptr, ptr %4, align 8
  %34 = getelementptr inbounds nuw %struct.dsa_area_pool, ptr %33, i32 0, i32 1
  %35 = getelementptr inbounds [4 x i64], ptr %34, i64 0, i64 1
  %36 = load i64, ptr %35, align 8
  store i64 %36, ptr %5, align 8
  br label %37

37:                                               ; preds = %59, %23
  %38 = load i64, ptr %5, align 8
  %39 = icmp ne i64 %38, 0
  br i1 %39, label %40, label %61

40:                                               ; preds = %37
  call void @llvm.lifetime.start.p0(i64 8, ptr %7) #8
  %41 = load ptr, ptr %2, align 8
  %42 = load i64, ptr %5, align 8
  %43 = call ptr @dsa_get_address(ptr noundef %41, i64 noundef %42)
  store ptr %43, ptr %7, align 8
  call void @llvm.lifetime.start.p0(i64 8, ptr %8) #8
  %44 = load ptr, ptr %7, align 8
  %45 = getelementptr inbounds nuw %struct.dsa_area_span, ptr %44, i32 0, i32 2
  %46 = load i64, ptr %45, align 8
  store i64 %46, ptr %8, align 8
  %47 = load ptr, ptr %7, align 8
  %48 = getelementptr inbounds nuw %struct.dsa_area_span, ptr %47, i32 0, i32 7
  %49 = load i16, ptr %48, align 4
  %50 = zext i16 %49 to i32
  %51 = load ptr, ptr %7, align 8
  %52 = getelementptr inbounds nuw %struct.dsa_area_span, ptr %51, i32 0, i32 9
  %53 = load i16, ptr %52, align 8
  %54 = zext i16 %53 to i32
  %55 = icmp eq i32 %50, %54
  br i1 %55, label %56, label %59

56:                                               ; preds = %40
  %57 = load ptr, ptr %2, align 8
  %58 = load i64, ptr %5, align 8
  call void @destroy_superblock(ptr noundef %57, i64 noundef %58)
  br label %59

59:                                               ; preds = %56, %40
  %60 = load i64, ptr %8, align 8
  store i64 %60, ptr %5, align 8
  call void @llvm.lifetime.end.p0(i64 8, ptr %8) #8
  call void @llvm.lifetime.end.p0(i64 8, ptr %7) #8
  br label %37, !llvm.loop !16

61:                                               ; preds = %37
  %62 = load ptr, ptr %2, align 8
  %63 = getelementptr inbounds nuw %struct.dsa_area, ptr %62, i32 0, i32 0
  %64 = load ptr, ptr %63, align 8
  %65 = getelementptr inbounds nuw %struct.dsa_area_control, ptr %64, i32 0, i32 4
  %66 = load i32, ptr %3, align 4
  %67 = sext i32 %66 to i64
  %68 = getelementptr inbounds [38 x %struct.dsa_area_pool], ptr %65, i64 0, i64 %67
  %69 = getelementptr inbounds nuw %struct.dsa_area_pool, ptr %68, i32 0, i32 0
  call void @LWLockRelease(ptr noundef %69)
  store i32 0, ptr %6, align 4
  br label %70

70:                                               ; preds = %61, %22
  call void @llvm.lifetime.end.p0(i64 8, ptr %5) #8
  call void @llvm.lifetime.end.p0(i64 8, ptr %4) #8
  %71 = load i32, ptr %6, align 4
  switch i32 %71, label %77 [
    i32 0, label %72
    i32 4, label %73
  ]

72:                                               ; preds = %70
  br label %73

73:                                               ; preds = %72, %70
  %74 = load i32, ptr %3, align 4
  %75 = add i32 %74, -1
  store i32 %75, ptr %3, align 4
  br label %9, !llvm.loop !17

76:                                               ; preds = %9
  call void @llvm.lifetime.end.p0(i64 4, ptr %3) #8
  ret void

77:                                               ; preds = %70
  unreachable
}