; Function Attrs: nounwind uwtable
define dso_local void @dsa_trim(ptr noundef %0) local_unnamed_addr #0 {
  %2 = getelementptr inbounds nuw i8, ptr %0, i64 40984
  %3 = getelementptr inbounds nuw i8, ptr %0, i64 40976
  %4 = getelementptr inbounds nuw i8, ptr %0, i64 16
  %5 = getelementptr i8, ptr %0, i64 24
  br label %6

6:                                                ; preds = %1, %64
  %indvars.iv = phi i64 [ 37, %1 ], [ %indvars.iv.next, %64 ]
  %7 = icmp eq i64 %indvars.iv, 1
  br i1 %7, label %64, label %8

8:                                                ; preds = %6
  %9 = load ptr, ptr %0, align 8
  %10 = getelementptr inbounds nuw i8, ptr %9, i64 4288
  %11 = getelementptr inbounds nuw [38 x %struct.dsa_area_pool], ptr %10, i64 0, i64 %indvars.iv
  %12 = tail call zeroext i1 @LWLockAcquire(ptr noundef nonnull %11, i32 noundef 0) #11
  %13 = getelementptr inbounds nuw i8, ptr %11, i64 24
  %14 = load i64, ptr %13, align 8
  %.not20 = icmp eq i64 %14, 0
  br i1 %.not20, label %._crit_edge, label %.lr.ph

.lr.ph:                                           ; preds = %8, %60
  %.01821 = phi i64 [ %53, %60 ], [ %14, %8 ]
  tail call void asm sideeffect "", "~{memory},~{dirflag},~{fpsr},~{flags}"() #11, !srcloc !9
  %15 = load ptr, ptr %0, align 8
  %16 = getelementptr inbounds nuw i8, ptr %15, i64 6160
  %17 = load i64, ptr %16, align 8
  %18 = load i64, ptr %2, align 8
  %.not.i.i = icmp eq i64 %18, %17
  br i1 %.not.i.i, label %check_for_freed_segments.exit.i, label %19, !prof !10

19:                                               ; preds = %.lr.ph
  %20 = getelementptr inbounds nuw i8, ptr %15, i64 6172
  %21 = tail call zeroext i1 @LWLockAcquire(ptr noundef nonnull %20, i32 noundef 0) #11
  %22 = load ptr, ptr %0, align 8
  %23 = getelementptr inbounds nuw i8, ptr %22, i64 6160
  %24 = load i64, ptr %23, align 8
  %25 = load i64, ptr %2, align 8
  %.not.i19 = icmp eq i64 %25, %24
  br i1 %.not.i19, label %check_for_freed_segments_locked.exit, label %.preheader.i, !prof !10

.preheader.i:                                     ; preds = %19, %36
  %26 = phi i64 [ %38, %36 ], [ 0, %19 ]
  %.024.i = phi i32 [ %37, %36 ], [ 0, %19 ]
  %27 = getelementptr inbounds [1024 x %struct.dsa_segment_map], ptr %4, i64 0, i64 %26
  %28 = getelementptr inbounds nuw i8, ptr %27, i64 16
  %29 = load ptr, ptr %28, align 8
  %.not23.i = icmp eq ptr %29, null
  br i1 %.not23.i, label %36, label %30

30:                                               ; preds = %.preheader.i
  %31 = getelementptr inbounds nuw i8, ptr %29, i64 48
  %32 = load i8, ptr %31, align 8, !range !15, !noundef !16
  %33 = trunc nuw i8 %32 to i1
  br i1 %33, label %34, label %36

34:                                               ; preds = %30
  %35 = load ptr, ptr %27, align 8
  tail call void @dsm_detach(ptr noundef %35) #11
  tail call void @llvm.memset.p0.i64(ptr noundef nonnull align 8 dereferenceable(24) %27, i8 0, i64 24, i1 false)
  br label %36

36:                                               ; preds = %34, %30, %.preheader.i
  %37 = add i32 %.024.i, 1
  %38 = sext i32 %37 to i64
  %39 = load i64, ptr %3, align 8
  %.not22.i = icmp ult i64 %39, %38
  br i1 %.not22.i, label %40, label %.preheader.i, !llvm.loop !17

40:                                               ; preds = %36
  store i64 %24, ptr %2, align 8
  %.pre = load ptr, ptr %0, align 8
  br label %check_for_freed_segments_locked.exit

check_for_freed_segments_locked.exit:             ; preds = %19, %40
  %41 = phi ptr [ %22, %19 ], [ %.pre, %40 ]
  %42 = getelementptr inbounds nuw i8, ptr %41, i64 6172
  tail call void @LWLockRelease(ptr noundef nonnull %42) #11
  br label %check_for_freed_segments.exit.i

check_for_freed_segments.exit.i:                  ; preds = %check_for_freed_segments_locked.exit, %.lr.ph
  %43 = lshr i64 %.01821, 40
  %44 = and i64 %.01821, 1099511627775
  %.idx.i = mul nuw nsw i64 %43, 40
  %45 = getelementptr i8, ptr %5, i64 %.idx.i
  %46 = load ptr, ptr %45, align 8
  %47 = icmp eq ptr %46, null
  br i1 %47, label %48, label %dsa_get_address.exit, !prof !11

48:                                               ; preds = %check_for_freed_segments.exit.i
  %49 = tail call fastcc ptr @get_segment_by_index(ptr noundef nonnull %0, i64 noundef %43)
  %.pre.i = load ptr, ptr %45, align 8
  br label %dsa_get_address.exit

dsa_get_address.exit:                             ; preds = %check_for_freed_segments.exit.i, %48
  %50 = phi ptr [ %.pre.i, %48 ], [ %46, %check_for_freed_segments.exit.i ]
  %51 = getelementptr inbounds nuw i8, ptr %50, i64 %44
  %52 = getelementptr inbounds nuw i8, ptr %51, i64 16
  %53 = load i64, ptr %52, align 8
  %54 = getelementptr inbounds nuw i8, ptr %51, i64 44
  %55 = load i16, ptr %54, align 4
  %56 = getelementptr inbounds nuw i8, ptr %51, i64 48
  %57 = load i16, ptr %56, align 8
  %58 = icmp eq i16 %55, %57
  br i1 %58, label %59, label %60

59:                                               ; preds = %dsa_get_address.exit
  tail call fastcc void @destroy_superblock(ptr noundef nonnull %0, i64 noundef %.01821)
  br label %60

60:                                               ; preds = %59, %dsa_get_address.exit
  %.not = icmp eq i64 %53, 0
  br i1 %.not, label %._crit_edge, label %.lr.ph, !llvm.loop !21

._crit_edge:                                      ; preds = %60, %8
  %61 = load ptr, ptr %0, align 8
  %62 = getelementptr inbounds nuw i8, ptr %61, i64 4288
  %63 = getelementptr inbounds nuw [38 x %struct.dsa_area_pool], ptr %62, i64 0, i64 %indvars.iv
  tail call void @LWLockRelease(ptr noundef nonnull %63) #11
  br label %64

64:                                               ; preds = %6, %._crit_edge
  %indvars.iv.next = add nsw i64 %indvars.iv, -1
  %.not24 = icmp eq i64 %indvars.iv, 0
  br i1 %.not24, label %65, label %6, !llvm.loop !22

65:                                               ; preds = %64
  ret void
}